; Function Attrs: mustprogress nofree norecurse nosync nounwind willreturn memory(read, inaccessiblemem: none) uwtable
define internal range(i32 -1, 2) i32 @_sort_rpc_obj_by_cnt(ptr noundef readonly captures(none) %0, ptr noundef readonly captures(none) %1) #5 {
  %3 = load ptr, ptr %0, align 8
  %4 = load ptr, ptr %1, align 8
  %5 = load i32, ptr %3, align 8
  %6 = load i32, ptr %4, align 8
  %7 = icmp ugt i32 %5, %6
  br i1 %7, label %_sort_rpc_obj_by_time.exit, label %8

8:                                                ; preds = %2
  %9 = icmp ult i32 %5, %6
  br i1 %9, label %_sort_rpc_obj_by_time.exit, label %10

10:                                               ; preds = %8
  %11 = getelementptr inbounds nuw i8, ptr %3, i64 8
  %12 = load i64, ptr %11, align 8
  %13 = getelementptr inbounds nuw i8, ptr %4, i64 8
  %14 = load i64, ptr %13, align 8
  %15 = icmp ugt i64 %12, %14
  %16 = ptrtoint ptr %3 to i64
  %17 = lshr i64 %16, 32
  %18 = trunc nuw i64 %17 to i32
  %19 = ptrtoint ptr %4 to i64
  %20 = lshr i64 %19, 32
  %21 = trunc nuw i64 %20 to i32
  br i1 %15, label %_sort_rpc_obj_by_time.exit, label %22

22:                                               ; preds = %10
  %23 = icmp ult i64 %12, %14
  br i1 %23, label %_sort_rpc_obj_by_time.exit, label %24

24:                                               ; preds = %22
  %.0.i.i = tail call range(i32 -1, 2) i32 @llvm.ucmp.i32.i32(i32 %18, i32 %21)
  br label %_sort_rpc_obj_by_time.exit

_sort_rpc_obj_by_time.exit:                       ; preds = %24, %22, %10, %8, %2
  %.0 = phi i32 [ -1, %2 ], [ 1, %8 ], [ %.0.i.i, %24 ], [ -1, %10 ], [ 1, %22 ]
  ret i32 %.0
}